target datalayout = "e-m:e-p270:32:32-p271:32:32-p272:64:64-i64:64-i128:128-f80:128-n8:16:32:64-S128"
target triple = "x86_64-pc-linux-gnu"

%struct.engineInfo = type { ptr, ptr, ptr }
%struct.functionsLibCtx = type { ptr, ptr, i64, ptr }

@engines = internal global ptr null, align 8

; Function Attrs: nounwind uwtable
define dso_local ptr @functionsLibCtxCreate() #1 {
  %1 = alloca ptr, align 8
  %2 = alloca ptr, align 8
  %3 = alloca ptr, align 8
  %4 = alloca ptr, align 8
  %5 = alloca ptr, align 8
  call void @llvm.lifetime.start.p0(i64 8, ptr %1) #11
  %6 = call noalias ptr @zmalloc(i64 noundef 32) #12
  store ptr %6, ptr %1, align 8, !tbaa !38
  %7 = call ptr @dictCreate(ptr noundef @librariesDictType)
  %8 = load ptr, ptr %1, align 8, !tbaa !38
  %9 = getelementptr inbounds nuw %struct.functionsLibCtx, ptr %8, i32 0, i32 0
  store ptr %7, ptr %9, align 8, !tbaa !42
  %10 = call ptr @dictCreate(ptr noundef @functionDictType)
  %11 = load ptr, ptr %1, align 8, !tbaa !38
  %12 = getelementptr inbounds nuw %struct.functionsLibCtx, ptr %11, i32 0, i32 1
  store ptr %10, ptr %12, align 8, !tbaa !40
  %13 = call ptr @dictCreate(ptr noundef @engineStatsDictType)
  %14 = load ptr, ptr %1, align 8, !tbaa !38
  %15 = getelementptr inbounds nuw %struct.functionsLibCtx, ptr %14, i32 0, i32 3
  store ptr %13, ptr %15, align 8, !tbaa !43
  call void @llvm.lifetime.start.p0(i64 8, ptr %2) #11
  %16 = load ptr, ptr @engines, align 8, !tbaa !5
  %17 = call ptr @dictGetIterator(ptr noundef %16)
  store ptr %17, ptr %2, align 8, !tbaa !44
  call void @llvm.lifetime.start.p0(i64 8, ptr %3) #11
  store ptr null, ptr %3, align 8, !tbaa !46
  br label %18

18:                                               ; preds = %22, %0
  %19 = load ptr, ptr %2, align 8, !tbaa !44
  %20 = call ptr @dictNext(ptr noundef %19)
  store ptr %20, ptr %3, align 8, !tbaa !46
  %21 = icmp ne ptr %20, null
  br i1 %21, label %22, label %34

22:                                               ; preds = %18
  call void @llvm.lifetime.start.p0(i64 8, ptr %4) #11
  %23 = load ptr, ptr %3, align 8, !tbaa !46
  %24 = call ptr @dictGetVal(ptr noundef %23)
  store ptr %24, ptr %4, align 8, !tbaa !11
  call void @llvm.lifetime.start.p0(i64 8, ptr %5) #11
  %25 = call noalias ptr @zcalloc(i64 noundef 16) #12
  store ptr %25, ptr %5, align 8, !tbaa !23
  %26 = load ptr, ptr %1, align 8, !tbaa !38
  %27 = getelementptr inbounds nuw %struct.functionsLibCtx, ptr %26, i32 0, i32 3
  %28 = load ptr, ptr %27, align 8, !tbaa !43
  %29 = load ptr, ptr %4, align 8, !tbaa !11
  %30 = getelementptr inbounds nuw %struct.engineInfo, ptr %29, i32 0, i32 0
  %31 = load ptr, ptr %30, align 8, !tbaa !18
  %32 = load ptr, ptr %5, align 8, !tbaa !23
  %33 = call i32 @dictAdd(ptr noundef %28, ptr noundef %31, ptr noundef %32)
  call void @llvm.lifetime.end.p0(i64 8, ptr %5) #11
  call void @llvm.lifetime.end.p0(i64 8, ptr %4) #11
  br label %18, !llvm.loop !56

34:                                               ; preds = %18
  %35 = load ptr, ptr %2, align 8, !tbaa !44
  call void @dictReleaseIterator(ptr noundef %35)
  %36 = load ptr, ptr %1, align 8, !tbaa !38
  %37 = getelementptr inbounds nuw %struct.functionsLibCtx, ptr %36, i32 0, i32 2
  store i64 0, ptr %37, align 8, !tbaa !53
  %38 = load ptr, ptr %1, align 8, !tbaa !38
  call void @llvm.lifetime.end.p0(i64 8, ptr %3) #11
  call void @llvm.lifetime.end.p0(i64 8, ptr %2) #11
  call void @llvm.lifetime.end.p0(i64 8, ptr %1) #11
  ret ptr %38
}