; Function Attrs: nounwind uwtable
define dso_local noalias noundef ptr @functionsLibCtxCreate() local_unnamed_addr #1 {
  %1 = tail call noalias dereferenceable_or_null(32) ptr @zmalloc(i64 noundef 32) #13
  %2 = tail call ptr @dictCreate(ptr noundef nonnull @librariesDictType) #12
  store ptr %2, ptr %1, align 8, !tbaa !35
  %3 = tail call ptr @dictCreate(ptr noundef nonnull @functionDictType) #12
  %4 = getelementptr inbounds nuw i8, ptr %1, i64 8
  store ptr %3, ptr %4, align 8, !tbaa !33
  %5 = tail call ptr @dictCreate(ptr noundef nonnull @engineStatsDictType) #12
  %6 = getelementptr inbounds nuw i8, ptr %1, i64 24
  store ptr %5, ptr %6, align 8, !tbaa !36
  %7 = load ptr, ptr @engines, align 8, !tbaa !42
  %8 = tail call ptr @dictGetIterator(ptr noundef %7) #12
  %9 = tail call ptr @dictNext(ptr noundef %8) #12
  %.not11 = icmp eq ptr %9, null
  br i1 %.not11, label %._crit_edge, label %.lr.ph

.lr.ph:                                           ; preds = %0, %.lr.ph
  %10 = phi ptr [ %15, %.lr.ph ], [ %9, %0 ]
  %11 = tail call ptr @dictGetVal(ptr noundef nonnull %10) #12
  %12 = tail call noalias dereferenceable_or_null(16) ptr @zcalloc(i64 noundef 16) #13
  %13 = load ptr, ptr %11, align 8, !tbaa !13
  %14 = tail call i32 @dictAdd(ptr noundef %5, ptr noundef %13, ptr noundef %12) #12
  %15 = tail call ptr @dictNext(ptr noundef %8) #12
  %.not = icmp eq ptr %15, null
  br i1 %.not, label %._crit_edge, label %.lr.ph, !llvm.loop !43

._crit_edge:                                      ; preds = %.lr.ph, %0
  tail call void @dictReleaseIterator(ptr noundef %8) #12
  %16 = getelementptr inbounds nuw i8, ptr %1, i64 16
  store i64 0, ptr %16, align 8, !tbaa !39
  ret ptr %1
}